; Function Attrs: nounwind sspstrong uwtable
define internal i64 @ancillary_s_int(i64 %0, i64 noundef %1, i64 noundef %2, i64 noundef %3, i64 noundef %4) #0 {
  %6 = alloca i64, align 8
  %7 = alloca i32, align 4
  %8 = tail call i32 @rsock_family_arg(i64 noundef %1) #10
  %9 = tail call i32 @rsock_level_arg(i32 noundef %8, i64 noundef %2) #10
  %10 = tail call i32 @rsock_cmsg_type_arg(i32 noundef %8, i32 noundef %9, i64 noundef %3) #10
  call void @llvm.lifetime.start.p0(i64 4, ptr nonnull %7) #10
  %11 = and i64 %4, 1
  %.not.i = icmp eq i64 %11, 0
  br i1 %.not.i, label %14, label %12

12:                                               ; preds = %5
  %13 = tail call i64 @rb_fix2int(i64 noundef %4) #10
  br label %rb_num2int_inline.exit

14:                                               ; preds = %5
  %15 = tail call i64 @rb_num2int(i64 noundef %4) #10
  br label %rb_num2int_inline.exit

rb_num2int_inline.exit:                           ; preds = %12, %14
  %.0.i = phi i64 [ %13, %12 ], [ %15, %14 ]
  %16 = trunc i64 %.0.i to i32
  store i32 %16, ptr %7, align 4, !tbaa !65
  %17 = call i64 @rb_str_new(ptr noundef nonnull %7, i64 noundef 4) #10
  call void @llvm.lifetime.start.p0(i64 8, ptr nonnull %6)
  store i64 %17, ptr %6, align 8, !tbaa !6
  %18 = load i64, ptr @rb_cAncillaryData, align 8, !tbaa !6
  %19 = call i64 @rb_obj_alloc(i64 noundef %18) #10
  %20 = call i64 @rb_string_value(ptr noundef nonnull %6) #10
  %21 = sext i32 %8 to i64
  %22 = shl nsw i64 %21, 1
  %23 = or disjoint i64 %22, 1
  %24 = sext i32 %9 to i64
  %25 = shl nsw i64 %24, 1
  %26 = or disjoint i64 %25, 1
  %27 = sext i32 %10 to i64
  %28 = shl nsw i64 %27, 1
  %29 = or disjoint i64 %28, 1
  %30 = load i64, ptr %6, align 8, !tbaa !6
  %31 = call i64 @ancillary_initialize(i64 noundef %19, i64 noundef %23, i64 noundef %26, i64 noundef %29, i64 noundef %30)
  call void @llvm.lifetime.end.p0(i64 8, ptr nonnull %6)
  call void @llvm.lifetime.end.p0(i64 4, ptr nonnull %7) #10
  ret i64 %19
}